target datalayout = "e-m:e-p270:32:32-p271:32:32-p272:64:64-i64:64-i128:128-f80:128-n8:16:32:64-S128"
target triple = "x86_64-pc-linux-gnu"

%"class.std::__cxx11::basic_string" = type { %"struct.std::__cxx11::basic_string<char>::_Alloc_hider", i64, %union.anon }
%"struct.std::__cxx11::basic_string<char>::_Alloc_hider" = type { ptr }
%union.anon = type { i64, [8 x i8] }
%"class.llvm::StringRef" = type { ptr, i64 }
%"class.clang::installapi::DylibVerifier" = type { %"class.llvm::MachO::RecordVisitor", %"class.llvm::SmallVector", %"class.llvm::SmallVector.0", %"class.std::map", i32, i8, i8, %"class.llvm::StringRef", %"class.std::unique_ptr", %"class.llvm::StringMap", %"struct.clang::installapi::DylibVerifier::VerifierContext", ptr, %"class.llvm::SmallVector.10" }
%"class.llvm::MachO::RecordVisitor" = type { ptr }
%"class.llvm::SmallVector" = type { %"class.llvm::SmallVectorImpl", %"struct.llvm::SmallVectorStorage" }
%"class.llvm::SmallVectorImpl" = type { %"class.llvm::SmallVectorTemplateBase" }
%"class.llvm::SmallVectorTemplateBase" = type { %"class.llvm::SmallVectorTemplateCommon" }
%"class.llvm::SmallVectorTemplateCommon" = type { %"class.llvm::SmallVectorBase" }
%"class.llvm::SmallVectorBase" = type { ptr, i32, i32 }
%"struct.llvm::SmallVectorStorage" = type { [64 x i8] }
%"class.llvm::SmallVector.0" = type { %"class.llvm::SmallVectorImpl.1", %"struct.llvm::SmallVectorStorage.4" }
%"class.llvm::SmallVectorImpl.1" = type { %"class.llvm::SmallVectorTemplateBase.2" }
%"class.llvm::SmallVectorTemplateBase.2" = type { %"class.llvm::SmallVectorTemplateCommon.3" }
%"class.llvm::SmallVectorTemplateCommon.3" = type { %"class.llvm::SmallVectorBase" }
%"struct.llvm::SmallVectorStorage.4" = type { [3712 x i8] }
%"class.std::map" = type { %"class.std::_Rb_tree" }
%"class.std::_Rb_tree" = type { %"struct.std::_Rb_tree<std::pair<std::__cxx11::basic_string<char>, llvm::MachO::EncodeKind>, std::pair<const std::pair<std::__cxx11::basic_string<char>, llvm::MachO::EncodeKind>, std::pair<std::__cxx11::basic_string<char>, llvm::MachO::EncodeKind>>, std::_Select1st<std::pair<const std::pair<std::__cxx11::basic_string<char>, llvm::MachO::EncodeKind>, std::pair<std::__cxx11::basic_string<char>, llvm::MachO::EncodeKind>>>, std::less<std::pair<std::__cxx11::basic_string<char>, llvm::MachO::EncodeKind>>>::_Rb_tree_impl" }
%"struct.std::_Rb_tree<std::pair<std::__cxx11::basic_string<char>, llvm::MachO::EncodeKind>, std::pair<const std::pair<std::__cxx11::basic_string<char>, llvm::MachO::EncodeKind>, std::pair<std::__cxx11::basic_string<char>, llvm::MachO::EncodeKind>>, std::_Select1st<std::pair<const std::pair<std::__cxx11::basic_string<char>, llvm::MachO::EncodeKind>, std::pair<std::__cxx11::basic_string<char>, llvm::MachO::EncodeKind>>>, std::less<std::pair<std::__cxx11::basic_string<char>, llvm::MachO::EncodeKind>>>::_Rb_tree_impl" = type { [8 x i8], %"struct.std::_Rb_tree_header" }
%"struct.std::_Rb_tree_header" = type { %"struct.std::_Rb_tree_node_base", i64 }
%"struct.std::_Rb_tree_node_base" = type { i32, ptr, ptr, ptr }
%"class.std::unique_ptr" = type { %"struct.std::__uniq_ptr_data" }
%"struct.std::__uniq_ptr_data" = type { %"class.std::__uniq_ptr_impl" }
%"class.std::__uniq_ptr_impl" = type { %"class.std::tuple" }
%"class.std::tuple" = type { %"struct.std::_Tuple_impl" }
%"struct.std::_Tuple_impl" = type { %"struct.std::_Head_base.9" }
%"struct.std::_Head_base.9" = type { ptr }
%"class.llvm::StringMap" = type { %"class.llvm::StringMapImpl" }
%"class.llvm::StringMapImpl" = type { ptr, i32, i32, i32, i32 }
%"struct.clang::installapi::DylibVerifier::VerifierContext" = type { %"class.llvm::MachO::Target", ptr, i32, i8, i8, ptr }
%"class.llvm::MachO::Target" = type { i8, i32, %"class.llvm::VersionTuple" }
%"class.llvm::VersionTuple" = type { i64, i64 }
%"class.llvm::SmallVector.10" = type { %"class.llvm::SmallVectorImpl.11", %"struct.llvm::SmallVectorStorage.14" }
%"class.llvm::SmallVectorImpl.11" = type { %"class.llvm::SmallVectorTemplateBase.12" }
%"class.llvm::SmallVectorTemplateBase.12" = type { %"class.llvm::SmallVectorTemplateCommon.13" }
%"class.llvm::SmallVectorTemplateCommon.13" = type { %"class.llvm::SmallVectorBase" }
%"struct.llvm::SmallVectorStorage.14" = type { [96 x i8] }
%"class.clang::SourceLocation" = type { i32 }
%"class.clang::DiagnosticsEngine" = type { %"class.llvm::RefCountedBase", i8, i8, i8, i8, i8, i8, i32, i32, i32, i32, i32, %"class.llvm::IntrusiveRefCntPtr", %"class.llvm::IntrusiveRefCntPtr.83", ptr, %"class.std::unique_ptr.84", ptr, %"class.std::__cxx11::list", %"class.clang::DiagnosticsEngine::DiagStateMap", %"class.std::vector.101", i8, i8, i8, i8, i32, i32, i32, i32, i32, ptr, ptr, i32, %"class.std::__cxx11::basic_string", %"class.std::__cxx11::basic_string", %"class.std::__cxx11::basic_string", %"class.std::__cxx11::basic_string", %"class.clang::SourceLocation", i32, %"struct.clang::DiagnosticStorage" }
%"class.llvm::RefCountedBase" = type { i32 }
%"class.llvm::IntrusiveRefCntPtr" = type { ptr }
%"class.llvm::IntrusiveRefCntPtr.83" = type { ptr }
%"class.std::unique_ptr.84" = type { %"struct.std::__uniq_ptr_data.85" }
%"struct.std::__uniq_ptr_data.85" = type { %"class.std::__uniq_ptr_impl.86" }
%"class.std::__uniq_ptr_impl.86" = type { %"class.std::tuple.87" }
%"class.std::tuple.87" = type { %"struct.std::_Tuple_impl.88" }
%"struct.std::_Tuple_impl.88" = type { %"struct.std::_Head_base.91" }
%"struct.std::_Head_base.91" = type { ptr }
%"class.std::__cxx11::list" = type { %"class.std::__cxx11::_List_base" }
%"class.std::__cxx11::_List_base" = type { %"struct.std::__cxx11::_List_base<clang::DiagnosticsEngine::DiagState, std::allocator<clang::DiagnosticsEngine::DiagState>>::_List_impl" }
%"struct.std::__cxx11::_List_base<clang::DiagnosticsEngine::DiagState, std::allocator<clang::DiagnosticsEngine::DiagState>>::_List_impl" = type { %"struct.std::__detail::_List_node_header" }
%"struct.std::__detail::_List_node_header" = type { %"struct.std::__detail::_List_node_base", i64 }
%"struct.std::__detail::_List_node_base" = type { ptr, ptr }
%"class.clang::DiagnosticsEngine::DiagStateMap" = type <{ %"class.std::map.95", ptr, ptr, %"class.clang::SourceLocation", [4 x i8] }>
%"class.std::map.95" = type { %"class.std::_Rb_tree.96" }
%"class.std::_Rb_tree.96" = type { %"struct.std::_Rb_tree<clang::FileID, std::pair<const clang::FileID, clang::DiagnosticsEngine::DiagStateMap::File>, std::_Select1st<std::pair<const clang::FileID, clang::DiagnosticsEngine::DiagStateMap::File>>, std::less<clang::FileID>>::_Rb_tree_impl" }
%"struct.std::_Rb_tree<clang::FileID, std::pair<const clang::FileID, clang::DiagnosticsEngine::DiagStateMap::File>, std::_Select1st<std::pair<const clang::FileID, clang::DiagnosticsEngine::DiagStateMap::File>>, std::less<clang::FileID>>::_Rb_tree_impl" = type { [8 x i8], %"struct.std::_Rb_tree_header" }
%"class.std::vector.101" = type { %"struct.std::_Vector_base.102" }
%"struct.std::_Vector_base.102" = type { %"struct.std::_Vector_base<clang::DiagnosticsEngine::DiagState *, std::allocator<clang::DiagnosticsEngine::DiagState *>>::_Vector_impl" }
%"struct.std::_Vector_base<clang::DiagnosticsEngine::DiagState *, std::allocator<clang::DiagnosticsEngine::DiagState *>>::_Vector_impl" = type { %"struct.std::_Vector_base<clang::DiagnosticsEngine::DiagState *, std::allocator<clang::DiagnosticsEngine::DiagState *>>::_Vector_impl_data" }
%"struct.std::_Vector_base<clang::DiagnosticsEngine::DiagState *, std::allocator<clang::DiagnosticsEngine::DiagState *>>::_Vector_impl_data" = type { ptr, ptr, ptr }
%"struct.clang::DiagnosticStorage" = type { i8, [10 x i8], [10 x i64], [10 x %"class.std::__cxx11::basic_string"], %"class.llvm::SmallVector.106", %"class.llvm::SmallVector.111" }
%"class.llvm::SmallVector.106" = type { %"class.llvm::SmallVectorImpl.107", %"struct.llvm::SmallVectorStorage.110" }
%"class.llvm::SmallVectorImpl.107" = type { %"class.llvm::SmallVectorTemplateBase.108" }
%"class.llvm::SmallVectorTemplateBase.108" = type { %"class.llvm::SmallVectorTemplateCommon.109" }
%"class.llvm::SmallVectorTemplateCommon.109" = type { %"class.llvm::SmallVectorBase" }
%"struct.llvm::SmallVectorStorage.110" = type { [96 x i8] }
%"class.llvm::SmallVector.111" = type { %"class.llvm::SmallVectorImpl.112", %"struct.llvm::SmallVectorStorage.115" }
%"class.llvm::SmallVectorImpl.112" = type { %"class.llvm::SmallVectorTemplateBase.113" }
%"class.llvm::SmallVectorTemplateBase.113" = type { %"class.llvm::SmallVectorTemplateCommon.114" }
%"class.llvm::SmallVectorTemplateCommon.114" = type { %"class.llvm::SmallVectorBase" }
%"struct.llvm::SmallVectorStorage.115" = type { [384 x i8] }
%"class.llvm::IntrusiveRefCntPtr.214" = type { ptr }

; Function Attrs: mustprogress nounwind uwtable
define linkonce_odr hidden noundef ptr @_ZN4llvm25SmallVectorTemplateCommonINS_18IntrusiveRefCntPtrIN5clang13SourceManagerEEEvE5beginEv(ptr noundef nonnull align 8 dereferenceable(16) %0) #0 comdat align 2 {
  %2 = alloca ptr, align 8
  store ptr %0, ptr %2, align 8
  %3 = load ptr, ptr %2, align 8
  %4 = getelementptr inbounds nuw %"class.llvm::SmallVectorBase", ptr %3, i32 0, i32 0
  %5 = load ptr, ptr %4, align 8
  ret ptr %5
}

; Function Attrs: mustprogress nounwind uwtable
define linkonce_odr hidden noundef ptr @_ZN4llvm25SmallVectorTemplateCommonINS_18IntrusiveRefCntPtrIN5clang13SourceManagerEEEvE3endEv(ptr noundef nonnull align 8 dereferenceable(16) %0) #0 comdat align 2 {
  %2 = alloca ptr, align 8
  store ptr %0, ptr %2, align 8
  %3 = load ptr, ptr %2, align 8
  %4 = call noundef ptr @_ZN4llvm25SmallVectorTemplateCommonINS_18IntrusiveRefCntPtrIN5clang13SourceManagerEEEvE5beginEv(ptr noundef nonnull align 8 dereferenceable(16) %3)
  %5 = call noundef i64 @_ZNK4llvm15SmallVectorBaseIjE4sizeEv(ptr noundef nonnull align 8 dereferenceable(16) %3)
  %6 = getelementptr inbounds %"class.llvm::IntrusiveRefCntPtr.214", ptr %4, i64 %5
  ret ptr %6
}

; Function Attrs: mustprogress nounwind uwtable
define linkonce_odr hidden void @_ZN5clang17DiagnosticsEngine16setSourceManagerEPNS_13SourceManagerE(ptr noundef nonnull align 8 dereferenceable(1304) %0, ptr noundef %1) #0 comdat align 2 {
  %3 = alloca ptr, align 8
  %4 = alloca ptr, align 8
  store ptr %0, ptr %3, align 8
  store ptr %1, ptr %4, align 8
  %5 = load ptr, ptr %3, align 8
  %6 = load ptr, ptr %4, align 8
  %7 = getelementptr inbounds nuw %"class.clang::DiagnosticsEngine", ptr %5, i32 0, i32 16
  store ptr %6, ptr %7, align 8
  ret void
}

; Function Attrs: mustprogress nounwind uwtable
define linkonce_odr hidden noundef ptr @_ZNK4llvm18IntrusiveRefCntPtrIN5clang13SourceManagerEE3getEv(ptr noundef nonnull align 8 dereferenceable(8) %0) #0 comdat align 2 {
  %2 = alloca ptr, align 8
  store ptr %0, ptr %2, align 8
  %3 = load ptr, ptr %2, align 8
  %4 = getelementptr inbounds nuw %"class.llvm::IntrusiveRefCntPtr.214", ptr %3, i32 0, i32 0
  %5 = load ptr, ptr %4, align 8
  ret ptr %5
}

; Function Attrs: mustprogress nounwind uwtable
define linkonce_odr hidden noundef nonnull align 8 dereferenceable(8) ptr @_ZN4llvm25SmallVectorTemplateCommonINS_18IntrusiveRefCntPtrIN5clang13SourceManagerEEEvE4backEv(ptr noundef nonnull align 8 dereferenceable(16) %0) #0 comdat align 2 {
  %2 = alloca ptr, align 8
  store ptr %0, ptr %2, align 8
  %3 = load ptr, ptr %2, align 8
  %4 = call noundef ptr @_ZN4llvm25SmallVectorTemplateCommonINS_18IntrusiveRefCntPtrIN5clang13SourceManagerEEEvE3endEv(ptr noundef nonnull align 8 dereferenceable(16) %3)
  %5 = getelementptr inbounds %"class.llvm::IntrusiveRefCntPtr.214", ptr %4, i64 -1
  ret ptr %5
}

; Function Attrs: mustprogress nounwind uwtable
define dso_local void @_ZN5clang10installapi13DylibVerifier16setSourceManagerEN4llvm18IntrusiveRefCntPtrINS_13SourceManagerEEE(ptr noundef nonnull align 8 dereferenceable(4088) %0, ptr noundef %1) #0 align 2 {
  %3 = alloca ptr, align 8
  %4 = alloca ptr, align 8
  store ptr %0, ptr %3, align 8
  store ptr %1, ptr %4, align 8
  %5 = load ptr, ptr %3, align 8
  %6 = getelementptr inbounds nuw %"class.clang::installapi::DylibVerifier", ptr %5, i32 0, i32 10
  %7 = getelementptr inbounds nuw %"struct.clang::installapi::DylibVerifier::VerifierContext", ptr %6, i32 0, i32 5
  %8 = load ptr, ptr %7, align 8
  %9 = icmp ne ptr %8, null
  br i1 %9, label %11, label %10

10:                                               ; preds = %2
  br label %19

11:                                               ; preds = %2
  %12 = getelementptr inbounds nuw %"class.clang::installapi::DylibVerifier", ptr %5, i32 0, i32 12
  call void @_ZN4llvm23SmallVectorTemplateBaseINS_18IntrusiveRefCntPtrIN5clang13SourceManagerEEELb0EE9push_backEOS4_(ptr noundef nonnull align 8 dereferenceable(16) %12, ptr noundef nonnull align 8 dereferenceable(8) %1)
  %13 = getelementptr inbounds nuw %"class.clang::installapi::DylibVerifier", ptr %5, i32 0, i32 10
  %14 = getelementptr inbounds nuw %"struct.clang::installapi::DylibVerifier::VerifierContext", ptr %13, i32 0, i32 5
  %15 = load ptr, ptr %14, align 8
  %16 = getelementptr inbounds nuw %"class.clang::installapi::DylibVerifier", ptr %5, i32 0, i32 12
  %17 = call noundef nonnull align 8 dereferenceable(8) ptr @_ZN4llvm25SmallVectorTemplateCommonINS_18IntrusiveRefCntPtrIN5clang13SourceManagerEEEvE4backEv(ptr noundef nonnull align 8 dereferenceable(16) %16)
  %18 = call noundef ptr @_ZNK4llvm18IntrusiveRefCntPtrIN5clang13SourceManagerEE3getEv(ptr noundef nonnull align 8 dereferenceable(8) %17)
  call void @_ZN5clang17DiagnosticsEngine16setSourceManagerEPNS_13SourceManagerE(ptr noundef nonnull align 8 dereferenceable(1304) %15, ptr noundef %18)
  br label %19

19:                                               ; preds = %11, %10
  ret void
}