; Function Attrs: mustprogress nounwind uwtable
define dso_local void @_ZN5clang10installapi13DylibVerifier16setSourceManagerEN4llvm18IntrusiveRefCntPtrINS_13SourceManagerEEE(ptr noundef nonnull align 8 dereferenceable(4088) %0, ptr noundef %1) local_unnamed_addr #0 align 2 {
  %3 = getelementptr inbounds nuw i8, ptr %0, i64 3960
  %4 = load ptr, ptr %3, align 8
  %.not = icmp eq ptr %4, null
  br i1 %.not, label %14, label %5

5:                                                ; preds = %2
  %6 = getelementptr inbounds nuw i8, ptr %0, i64 3976
  tail call void @_ZN4llvm23SmallVectorTemplateBaseINS_18IntrusiveRefCntPtrIN5clang13SourceManagerEEELb0EE9push_backEOS4_(ptr noundef nonnull align 8 dereferenceable(16) %6, ptr noundef nonnull align 8 dereferenceable(8) %1)
  %7 = load ptr, ptr %3, align 8
  %8 = load ptr, ptr %6, align 8
  %9 = tail call noundef i64 @_ZNK4llvm15SmallVectorBaseIjE4sizeEv(ptr noundef nonnull align 8 dereferenceable(16) %6) #18
  %10 = getelementptr inbounds %"class.llvm::IntrusiveRefCntPtr.214", ptr %8, i64 %9
  %11 = getelementptr inbounds i8, ptr %10, i64 -8
  %12 = load ptr, ptr %11, align 8
  %13 = getelementptr inbounds nuw i8, ptr %7, i64 64
  store ptr %12, ptr %13, align 8
  br label %14

14:                                               ; preds = %2, %5
  ret void
}